; Function Attrs: nounwind uwtable
define dso_local zeroext i1 @_is_user_any_coord_internal(ptr noundef %0, ptr noundef %1, i1 noundef zeroext %2) local_unnamed_addr #0 {
  %4 = tail call i32 @assoc_mgr_fill_in_user(ptr noundef %0, ptr noundef %1, i32 noundef 1, ptr noundef null, i1 noundef zeroext %2) #12
  %.not = icmp eq i32 %4, 0
  br i1 %.not, label %11, label %5

5:                                                ; preds = %3
  %6 = getelementptr inbounds nuw i8, ptr %1, i64 56
  %7 = load ptr, ptr %6, align 8
  %8 = getelementptr inbounds nuw i8, ptr %1, i64 72
  %9 = load i32, ptr %8, align 8
  %10 = tail call i32 (ptr, ...) @slurm_error(ptr noundef nonnull @.str, ptr noundef %7, i32 noundef %9) #12
  br label %17

11:                                               ; preds = %3
  %12 = getelementptr inbounds nuw i8, ptr %1, i64 24
  %13 = load ptr, ptr %12, align 8
  %.not8 = icmp eq ptr %13, null
  br i1 %.not8, label %17, label %14

14:                                               ; preds = %11
  %15 = tail call i32 @slurm_list_count(ptr noundef nonnull %13) #12
  %16 = icmp ne i32 %15, 0
  br label %17

17:                                               ; preds = %11, %14, %5
  %.0 = phi i1 [ false, %5 ], [ false, %11 ], [ %16, %14 ]
  ret i1 %.0
}